; Function Attrs: mustprogress nofree norecurse nosync nounwind null_pointer_is_valid sspstrong willreturn memory(argmem: read) uwtable
define zeroext i1 @wtap_addrinfo_list_empty(ptr noundef readonly captures(address_is_null) %0) local_unnamed_addr #6 {
  %2 = icmp eq ptr %0, null
  br i1 %2, label %10, label %3

3:                                                ; preds = %1
  %4 = load ptr, ptr %0, align 8
  %5 = icmp eq ptr %4, null
  br i1 %5, label %6, label %10

6:                                                ; preds = %3
  %7 = getelementptr inbounds nuw i8, ptr %0, i64 8
  %8 = load ptr, ptr %7, align 8
  %9 = icmp eq ptr %8, null
  br label %10

10:                                               ; preds = %3, %6, %1
  %11 = phi i1 [ true, %1 ], [ false, %3 ], [ %9, %6 ]
  ret i1 %11
}